target datalayout = "e-m:e-p270:32:32-p271:32:32-p272:64:64-i64:64-i128:128-f80:128-n8:16:32:64-S128"
target triple = "x86_64-unknown-linux-gnu"

%"struct.icu_75::CollationTailoring" = type { %"class.icu_75::SharedObject", ptr, ptr, %"class.icu_75::UnicodeString", %"class.icu_75::Locale", [4 x i8], ptr, ptr, ptr, ptr, ptr, ptr, ptr, %"struct.icu_75::UInitOnce" }
%"class.icu_75::SharedObject" = type { %"class.icu_75::UObject", i32, %"struct.std::atomic", ptr }
%"class.icu_75::UObject" = type { ptr }
%"struct.std::atomic" = type { %"struct.std::__atomic_base" }
%"struct.std::__atomic_base" = type { i32 }
%"class.icu_75::UnicodeString" = type { %"class.icu_75::Replaceable", %"union.icu_75::UnicodeString::StackBufferOrFields" }
%"class.icu_75::Replaceable" = type { %"class.icu_75::UObject" }
%"union.icu_75::UnicodeString::StackBufferOrFields" = type { %struct.anon.0, [32 x i8] }
%struct.anon.0 = type { i16, i32, i32, ptr }
%"class.icu_75::Locale" = type <{ %"class.icu_75::UObject", [12 x i8], [6 x i8], [4 x i8], [2 x i8], i32, [4 x i8], ptr, [157 x i8], [3 x i8], ptr, i8, [7 x i8] }>
%"struct.icu_75::UInitOnce" = type { %"struct.std::atomic", i32 }
%struct.anon = type { i16, [27 x i16] }
%"struct.icu_75::CollationSettings" = type <{ %"class.icu_75::SharedObject", i32, i32, ptr, i32, [4 x i8], ptr, i32, [4 x i8], ptr, i32, i32, i32, [384 x i16], [4 x i8] }>

@_ZTVN6icu_7518CollationTailoringE = unnamed_addr constant { [5 x ptr] } { [5 x ptr] [ptr null, ptr @_ZTIN6icu_7518CollationTailoringE, ptr @_ZN6icu_7518CollationTailoringD1Ev, ptr @_ZN6icu_7518CollationTailoringD0Ev, ptr @_ZNK6icu_757UObject17getDynamicClassIDEv] }, align 8
@.str = private unnamed_addr constant [1 x i8] zeroinitializer, align 1
@_ZTVN6icu_7512SharedObjectE = external unnamed_addr constant { [5 x ptr] }, align 8
@_ZTVN6icu_757UObjectE = external unnamed_addr constant { [5 x ptr] }, align 8
@_ZTVN6icu_7513UnicodeStringE = external unnamed_addr constant { [13 x ptr] }, align 8
@_ZTVN6icu_7511ReplaceableE = external unnamed_addr constant { [13 x ptr] }, align 8
@_ZTVN6icu_7517CollationSettingsE = external unnamed_addr constant { [5 x ptr] }, align 8

; Function Attrs: noreturn nounwind uwtable
define linkonce_odr hidden void @__clang_call_terminate(ptr noundef %0) #4 comdat {
  %2 = call ptr @__cxa_begin_catch(ptr %0) #5
  call void @_ZSt9terminatev() #6
  unreachable
}

; Function Attrs: mustprogress nounwind uwtable
define linkonce_odr noundef i32 @_ZStanSt12memory_orderSt23__memory_order_modifier(i32 noundef %__m, i32 noundef %__mod) #1 comdat {
entry:
  %__m.addr = alloca i32, align 4
  %__mod.addr = alloca i32, align 4
  store i32 %__m, ptr %__m.addr, align 4
  store i32 %__mod, ptr %__mod.addr, align 4
  %0 = load i32, ptr %__m.addr, align 4
  %1 = load i32, ptr %__mod.addr, align 4
  %and = and i32 %0, %1
  ret i32 %and
}

; Function Attrs: mustprogress nounwind uwtable
define linkonce_odr void @_ZNSt13__atomic_baseIiEC2Ei(ptr noundef nonnull align 4 dereferenceable(4) %this, i32 noundef %__i) unnamed_addr #1 comdat align 2 {
entry:
  %this.addr = alloca ptr, align 8
  %__i.addr = alloca i32, align 4
  store ptr %this, ptr %this.addr, align 8
  store i32 %__i, ptr %__i.addr, align 4
  %this1 = load ptr, ptr %this.addr, align 8
  %_M_i = getelementptr inbounds %"struct.std::__atomic_base", ptr %this1, i32 0, i32 0
  %0 = load i32, ptr %__i.addr, align 4
  store i32 %0, ptr %_M_i, align 4
  ret void
}

; Function Attrs: mustprogress nounwind uwtable
define linkonce_odr noundef i32 @_ZNSt13__atomic_baseIiEaSEi(ptr noundef nonnull align 4 dereferenceable(4) %this, i32 noundef %__i) #1 comdat align 2 personality ptr @__gxx_personality_v0 {
entry:
  %this.addr.i = alloca ptr, align 8
  %__i.addr.i = alloca i32, align 4
  %__m.addr.i = alloca i32, align 4
  %__b.i = alloca i32, align 4
  %.atomictmp.i = alloca i32, align 4
  %this.addr = alloca ptr, align 8
  %__i.addr = alloca i32, align 4
  store ptr %this, ptr %this.addr, align 8
  store i32 %__i, ptr %__i.addr, align 4
  %this1 = load ptr, ptr %this.addr, align 8
  %0 = load i32, ptr %__i.addr, align 4
  store ptr %this1, ptr %this.addr.i, align 8
  store i32 %0, ptr %__i.addr.i, align 4
  store i32 5, ptr %__m.addr.i, align 4
  %this1.i = load ptr, ptr %this.addr.i, align 8
  %1 = load i32, ptr %__m.addr.i, align 4
  %call.i = invoke noundef i32 @_ZStanSt12memory_orderSt23__memory_order_modifier(i32 noundef %1, i32 noundef 65535)
          to label %invoke.cont.i unwind label %terminate.lpad.i

invoke.cont.i:                                    ; preds = %entry
  store i32 %call.i, ptr %__b.i, align 4
  %2 = load i32, ptr %__m.addr.i, align 4
  %3 = load i32, ptr %__i.addr.i, align 4
  store i32 %3, ptr %.atomictmp.i, align 4
  switch i32 %2, label %monotonic.i [
    i32 3, label %release.i
    i32 5, label %seqcst.i
  ]

monotonic.i:                                      ; preds = %invoke.cont.i
  %4 = load i32, ptr %.atomictmp.i, align 4
  store atomic i32 %4, ptr %this1.i monotonic, align 4
  br label %_ZNSt13__atomic_baseIiE5storeEiSt12memory_order.exit

release.i:                                        ; preds = %invoke.cont.i
  %5 = load i32, ptr %.atomictmp.i, align 4
  store atomic i32 %5, ptr %this1.i release, align 4
  br label %_ZNSt13__atomic_baseIiE5storeEiSt12memory_order.exit

seqcst.i:                                         ; preds = %invoke.cont.i
  %6 = load i32, ptr %.atomictmp.i, align 4
  store atomic i32 %6, ptr %this1.i seq_cst, align 4
  br label %_ZNSt13__atomic_baseIiE5storeEiSt12memory_order.exit

terminate.lpad.i:                                 ; preds = %entry
  %7 = landingpad { ptr, i32 }
          catch ptr null
  %8 = extractvalue { ptr, i32 } %7, 0
  call void @__clang_call_terminate(ptr %8) #6
  unreachable

_ZNSt13__atomic_baseIiE5storeEiSt12memory_order.exit: ; preds = %seqcst.i, %release.i, %monotonic.i
  %9 = load i32, ptr %__i.addr, align 4
  ret i32 %9
}

; Function Attrs: mustprogress nounwind uwtable
define linkonce_odr void @_ZN6icu_7511ReplaceableC2Ev(ptr noundef nonnull align 8 dereferenceable(8) %this) unnamed_addr #1 comdat align 2 {
entry:
  %this.addr = alloca ptr, align 8
  store ptr %this, ptr %this.addr, align 8
  %this1 = load ptr, ptr %this.addr, align 8
  call void @_ZN6icu_757UObjectC2Ev(ptr noundef nonnull align 8 dereferenceable(8) %this1) #5
  store ptr getelementptr inbounds ({ [13 x ptr] }, ptr @_ZTVN6icu_7511ReplaceableE, i32 0, i32 0, i32 2), ptr %this1, align 8
  ret void
}

; Function Attrs: mustprogress nounwind uwtable
define linkonce_odr void @_ZNSt6atomicIiEC2Ei(ptr noundef nonnull align 4 dereferenceable(4) %this, i32 noundef %__i) unnamed_addr #1 comdat align 2 {
entry:
  %this.addr = alloca ptr, align 8
  %__i.addr = alloca i32, align 4
  store ptr %this, ptr %this.addr, align 8
  store i32 %__i, ptr %__i.addr, align 4
  %this1 = load ptr, ptr %this.addr, align 8
  %0 = load i32, ptr %__i.addr, align 4
  call void @_ZNSt13__atomic_baseIiEC2Ei(ptr noundef nonnull align 4 dereferenceable(4) %this1, i32 noundef %0) #5
  ret void
}

; Function Attrs: mustprogress nounwind uwtable
define linkonce_odr void @_ZN6icu_757UObjectC2Ev(ptr noundef nonnull align 8 dereferenceable(8) %this) unnamed_addr #1 comdat align 2 {
entry:
  %this.addr = alloca ptr, align 8
  store ptr %this, ptr %this.addr, align 8
  %this1 = load ptr, ptr %this.addr, align 8
  store ptr getelementptr inbounds ({ [5 x ptr] }, ptr @_ZTVN6icu_757UObjectE, i32 0, i32 0, i32 2), ptr %this1, align 8
  ret void
}

; Function Attrs: mustprogress nounwind uwtable
define linkonce_odr void @_ZN6icu_759UInitOnce5resetEv(ptr noundef nonnull align 4 dereferenceable(8) %this) #1 comdat align 2 {
entry:
  %this.addr = alloca ptr, align 8
  store ptr %this, ptr %this.addr, align 8
  %this1 = load ptr, ptr %this.addr, align 8
  %fState = getelementptr inbounds %"struct.icu_75::UInitOnce", ptr %this1, i32 0, i32 0
  %call = call noundef i32 @_ZNSt13__atomic_baseIiEaSEi(ptr noundef nonnull align 4 dereferenceable(4) %fState, i32 noundef 0) #5
  ret void
}

; Function Attrs: mustprogress nounwind uwtable
define linkonce_odr void @_ZN6icu_7517CollationSettingsC2Ev(ptr noundef nonnull align 8 dereferenceable(852) %this) unnamed_addr #1 comdat align 2 {
entry:
  %this.addr = alloca ptr, align 8
  store ptr %this, ptr %this.addr, align 8
  %this1 = load ptr, ptr %this.addr, align 8
  call void @_ZN6icu_7512SharedObjectC2Ev(ptr noundef nonnull align 8 dereferenceable(24) %this1)
  store ptr getelementptr inbounds ({ [5 x ptr] }, ptr @_ZTVN6icu_7517CollationSettingsE, i32 0, i32 0, i32 2), ptr %this1, align 8
  %options = getelementptr inbounds %"struct.icu_75::CollationSettings", ptr %this1, i32 0, i32 1
  store i32 8208, ptr %options, align 8
  %variableTop = getelementptr inbounds %"struct.icu_75::CollationSettings", ptr %this1, i32 0, i32 2
  store i32 0, ptr %variableTop, align 4
  %reorderTable = getelementptr inbounds %"struct.icu_75::CollationSettings", ptr %this1, i32 0, i32 3
  store ptr null, ptr %reorderTable, align 8
  %minHighNoReorder = getelementptr inbounds %"struct.icu_75::CollationSettings", ptr %this1, i32 0, i32 4
  store i32 0, ptr %minHighNoReorder, align 8
  %reorderRanges = getelementptr inbounds %"struct.icu_75::CollationSettings", ptr %this1, i32 0, i32 6
  store ptr null, ptr %reorderRanges, align 8
  %reorderRangesLength = getelementptr inbounds %"struct.icu_75::CollationSettings", ptr %this1, i32 0, i32 7
  store i32 0, ptr %reorderRangesLength, align 8
  %reorderCodes = getelementptr inbounds %"struct.icu_75::CollationSettings", ptr %this1, i32 0, i32 9
  store ptr null, ptr %reorderCodes, align 8
  %reorderCodesLength = getelementptr inbounds %"struct.icu_75::CollationSettings", ptr %this1, i32 0, i32 10
  store i32 0, ptr %reorderCodesLength, align 8
  %reorderCodesCapacity = getelementptr inbounds %"struct.icu_75::CollationSettings", ptr %this1, i32 0, i32 11
  store i32 0, ptr %reorderCodesCapacity, align 4
  %fastLatinOptions = getelementptr inbounds %"struct.icu_75::CollationSettings", ptr %this1, i32 0, i32 12
  store i32 -1, ptr %fastLatinOptions, align 8
  ret void
}

; Function Attrs: mustprogress nounwind uwtable
define linkonce_odr void @_ZN6icu_759UInitOnceC2Ev(ptr noundef nonnull align 4 dereferenceable(8) %this) unnamed_addr #1 comdat align 2 {
entry:
  %this.addr = alloca ptr, align 8
  store ptr %this, ptr %this.addr, align 8
  %this1 = load ptr, ptr %this.addr, align 8
  %fState = getelementptr inbounds %"struct.icu_75::UInitOnce", ptr %this1, i32 0, i32 0
  call void @_ZNSt6atomicIiEC2Ei(ptr noundef nonnull align 4 dereferenceable(4) %fState, i32 noundef 0) #5
  %fErrCode = getelementptr inbounds %"struct.icu_75::UInitOnce", ptr %this1, i32 0, i32 1
  store i32 0, ptr %fErrCode, align 4
  ret void
}

; Function Attrs: mustprogress uwtable
define linkonce_odr void @_ZN6icu_7513UnicodeStringC2Ev(ptr noundef nonnull align 8 dereferenceable(64) %this) unnamed_addr #0 comdat align 2 {
entry:
  %this.addr = alloca ptr, align 8
  store ptr %this, ptr %this.addr, align 8
  %this1 = load ptr, ptr %this.addr, align 8
  call void @_ZN6icu_7511ReplaceableC2Ev(ptr noundef nonnull align 8 dereferenceable(8) %this1)
  store ptr getelementptr inbounds ({ [13 x ptr] }, ptr @_ZTVN6icu_7513UnicodeStringE, i32 0, i32 0, i32 2), ptr %this1, align 8
  %fUnion2 = getelementptr inbounds %"class.icu_75::UnicodeString", ptr %this1, i32 0, i32 1
  %fLengthAndFlags = getelementptr inbounds %struct.anon, ptr %fUnion2, i32 0, i32 0
  store i16 2, ptr %fLengthAndFlags, align 8
  ret void
}

; Function Attrs: mustprogress nounwind uwtable
define linkonce_odr void @_ZN6icu_7512SharedObjectC2Ev(ptr noundef nonnull align 8 dereferenceable(24) %this) unnamed_addr #1 comdat align 2 {
entry:
  %this.addr = alloca ptr, align 8
  store ptr %this, ptr %this.addr, align 8
  %this1 = load ptr, ptr %this.addr, align 8
  call void @_ZN6icu_757UObjectC2Ev(ptr noundef nonnull align 8 dereferenceable(8) %this1) #5
  store ptr getelementptr inbounds ({ [5 x ptr] }, ptr @_ZTVN6icu_7512SharedObjectE, i32 0, i32 0, i32 2), ptr %this1, align 8
  %softRefCount = getelementptr inbounds %"class.icu_75::SharedObject", ptr %this1, i32 0, i32 1
  store i32 0, ptr %softRefCount, align 8
  %hardRefCount = getelementptr inbounds %"class.icu_75::SharedObject", ptr %this1, i32 0, i32 2
  call void @_ZNSt6atomicIiEC2Ei(ptr noundef nonnull align 4 dereferenceable(4) %hardRefCount, i32 noundef 0) #5
  %cachePtr = getelementptr inbounds %"class.icu_75::SharedObject", ptr %this1, i32 0, i32 3
  store ptr null, ptr %cachePtr, align 8
  ret void
}

; Function Attrs: mustprogress uwtable
define void @_ZN6icu_7518CollationTailoringC2EPKNS_17CollationSettingsE(ptr noundef nonnull align 8 dereferenceable(400) %this, ptr noundef %baseSettings) unnamed_addr #0 align 2 personality ptr @__gxx_personality_v0 {
entry:
  %this.addr = alloca ptr, align 8
  %baseSettings.addr = alloca ptr, align 8
  %exn.slot = alloca ptr, align 8
  %ehselector.slot = alloca i32, align 4
  %saved-rvalue = alloca ptr, align 8
  %cleanup.cond = alloca i1, align 1
  store ptr %this, ptr %this.addr, align 8
  store ptr %baseSettings, ptr %baseSettings.addr, align 8
  %this1 = load ptr, ptr %this.addr, align 8
  call void @_ZN6icu_7512SharedObjectC2Ev(ptr noundef nonnull align 8 dereferenceable(24) %this1)
  store ptr getelementptr inbounds ({ [5 x ptr] }, ptr @_ZTVN6icu_7518CollationTailoringE, i32 0, i32 0, i32 2), ptr %this1, align 8
  %data = getelementptr inbounds %"struct.icu_75::CollationTailoring", ptr %this1, i32 0, i32 1
  store ptr null, ptr %data, align 8
  %settings = getelementptr inbounds %"struct.icu_75::CollationTailoring", ptr %this1, i32 0, i32 2
  %0 = load ptr, ptr %baseSettings.addr, align 8
  store ptr %0, ptr %settings, align 8
  %rules = getelementptr inbounds %"struct.icu_75::CollationTailoring", ptr %this1, i32 0, i32 3
  invoke void @_ZN6icu_7513UnicodeStringC2Ev(ptr noundef nonnull align 8 dereferenceable(64) %rules)
          to label %invoke.cont unwind label %lpad

invoke.cont:                                      ; preds = %entry
  %actualLocale = getelementptr inbounds %"struct.icu_75::CollationTailoring", ptr %this1, i32 0, i32 4
  invoke void @_ZN6icu_756LocaleC1EPKcS2_S2_S2_(ptr noundef nonnull align 8 dereferenceable(217) %actualLocale, ptr noundef @.str, ptr noundef null, ptr noundef null, ptr noundef null)
          to label %invoke.cont3 unwind label %lpad2

invoke.cont3:                                     ; preds = %invoke.cont
  %ownedData = getelementptr inbounds %"struct.icu_75::CollationTailoring", ptr %this1, i32 0, i32 6
  store ptr null, ptr %ownedData, align 8
  %builder = getelementptr inbounds %"struct.icu_75::CollationTailoring", ptr %this1, i32 0, i32 7
  store ptr null, ptr %builder, align 8
  %memory = getelementptr inbounds %"struct.icu_75::CollationTailoring", ptr %this1, i32 0, i32 8
  store ptr null, ptr %memory, align 8
  %bundle = getelementptr inbounds %"struct.icu_75::CollationTailoring", ptr %this1, i32 0, i32 9
  store ptr null, ptr %bundle, align 8
  %trie = getelementptr inbounds %"struct.icu_75::CollationTailoring", ptr %this1, i32 0, i32 10
  store ptr null, ptr %trie, align 8
  %unsafeBackwardSet = getelementptr inbounds %"struct.icu_75::CollationTailoring", ptr %this1, i32 0, i32 11
  store ptr null, ptr %unsafeBackwardSet, align 8
  %maxExpansions = getelementptr inbounds %"struct.icu_75::CollationTailoring", ptr %this1, i32 0, i32 12
  store ptr null, ptr %maxExpansions, align 8
  %maxExpansionsInitOnce = getelementptr inbounds %"struct.icu_75::CollationTailoring", ptr %this1, i32 0, i32 13
  call void @_ZN6icu_759UInitOnceC2Ev(ptr noundef nonnull align 4 dereferenceable(8) %maxExpansionsInitOnce) #5
  %1 = load ptr, ptr %baseSettings.addr, align 8
  %cmp = icmp ne ptr %1, null
  br i1 %cmp, label %if.then, label %if.else

if.then:                                          ; preds = %invoke.cont3
  br label %if.end

lpad:                                             ; preds = %entry
  %2 = landingpad { ptr, i32 }
          cleanup
  %3 = extractvalue { ptr, i32 } %2, 0
  store ptr %3, ptr %exn.slot, align 8
  %4 = extractvalue { ptr, i32 } %2, 1
  store i32 %4, ptr %ehselector.slot, align 4
  br label %ehcleanup26

lpad2:                                            ; preds = %invoke.cont
  %5 = landingpad { ptr, i32 }
          cleanup
  %6 = extractvalue { ptr, i32 } %5, 0
  store ptr %6, ptr %exn.slot, align 8
  %7 = extractvalue { ptr, i32 } %5, 1
  store i32 %7, ptr %ehselector.slot, align 4
  br label %ehcleanup25

if.else:                                          ; preds = %invoke.cont3
  %call = call noundef ptr @_ZN6icu_757UMemorynwEm(i64 noundef 856) #5
  %new.isnull = icmp eq ptr %call, null
  store i1 false, ptr %cleanup.cond, align 1
  br i1 %new.isnull, label %new.cont, label %new.notnull

new.notnull:                                      ; preds = %if.else
  store ptr %call, ptr %saved-rvalue, align 8
  store i1 true, ptr %cleanup.cond, align 1
  invoke void @_ZN6icu_7517CollationSettingsC2Ev(ptr noundef nonnull align 8 dereferenceable(852) %call)
          to label %invoke.cont5 unwind label %lpad4

invoke.cont5:                                     ; preds = %new.notnull
  br label %new.cont

new.cont:                                         ; preds = %invoke.cont5, %if.else
  %8 = phi ptr [ %call, %invoke.cont5 ], [ null, %if.else ]
  %settings6 = getelementptr inbounds %"struct.icu_75::CollationTailoring", ptr %this1, i32 0, i32 2
  store ptr %8, ptr %settings6, align 8
  br label %if.end

lpad4:                                            ; preds = %new.notnull
  %9 = landingpad { ptr, i32 }
          cleanup
  %10 = extractvalue { ptr, i32 } %9, 0
  store ptr %10, ptr %exn.slot, align 8
  %11 = extractvalue { ptr, i32 } %9, 1
  store i32 %11, ptr %ehselector.slot, align 4
  %cleanup.is_active = load i1, ptr %cleanup.cond, align 1
  br i1 %cleanup.is_active, label %cleanup.action, label %cleanup.done

cleanup.action:                                   ; preds = %lpad4
  %12 = load ptr, ptr %saved-rvalue, align 8
  call void @_ZN6icu_757UMemorydlEPv(ptr noundef %12) #5
  br label %cleanup.done

cleanup.done:                                     ; preds = %cleanup.action, %lpad4
  br label %ehcleanup

if.end:                                           ; preds = %new.cont, %if.then
  %settings7 = getelementptr inbounds %"struct.icu_75::CollationTailoring", ptr %this1, i32 0, i32 2
  %13 = load ptr, ptr %settings7, align 8
  %cmp8 = icmp ne ptr %13, null
  br i1 %cmp8, label %if.then9, label %if.end13

if.then9:                                         ; preds = %if.end
  %settings10 = getelementptr inbounds %"struct.icu_75::CollationTailoring", ptr %this1, i32 0, i32 2
  %14 = load ptr, ptr %settings10, align 8
  invoke void @_ZNK6icu_7512SharedObject6addRefEv(ptr noundef nonnull align 8 dereferenceable(24) %14)
          to label %invoke.cont12 unwind label %lpad11

invoke.cont12:                                    ; preds = %if.then9
  br label %if.end13

lpad11:                                           ; preds = %invoke.cont15, %if.end13, %if.then9
  %15 = landingpad { ptr, i32 }
          cleanup
  %16 = extractvalue { ptr, i32 } %15, 0
  store ptr %16, ptr %exn.slot, align 8
  %17 = extractvalue { ptr, i32 } %15, 1
  store i32 %17, ptr %ehselector.slot, align 4
  br label %ehcleanup

if.end13:                                         ; preds = %invoke.cont12, %if.end
  %rules14 = getelementptr inbounds %"struct.icu_75::CollationTailoring", ptr %this1, i32 0, i32 3
  %call16 = invoke noundef ptr @_ZN6icu_7513UnicodeString19getTerminatedBufferEv(ptr noundef nonnull align 8 dereferenceable(64) %rules14)
          to label %invoke.cont15 unwind label %lpad11

invoke.cont15:                                    ; preds = %if.end13
  %version = getelementptr inbounds %"struct.icu_75::CollationTailoring", ptr %this1, i32 0, i32 5
  %arrayidx = getelementptr inbounds [4 x i8], ptr %version, i64 0, i64 3
  store i8 0, ptr %arrayidx, align 1
  %version17 = getelementptr inbounds %"struct.icu_75::CollationTailoring", ptr %this1, i32 0, i32 5
  %arrayidx18 = getelementptr inbounds [4 x i8], ptr %version17, i64 0, i64 2
  store i8 0, ptr %arrayidx18, align 2
  %version19 = getelementptr inbounds %"struct.icu_75::CollationTailoring", ptr %this1, i32 0, i32 5
  %arrayidx20 = getelementptr inbounds [4 x i8], ptr %version19, i64 0, i64 1
  store i8 0, ptr %arrayidx20, align 1
  %version21 = getelementptr inbounds %"struct.icu_75::CollationTailoring", ptr %this1, i32 0, i32 5
  %arrayidx22 = getelementptr inbounds [4 x i8], ptr %version21, i64 0, i64 0
  store i8 0, ptr %arrayidx22, align 8
  %maxExpansionsInitOnce23 = getelementptr inbounds %"struct.icu_75::CollationTailoring", ptr %this1, i32 0, i32 13
  invoke void @_ZN6icu_759UInitOnce5resetEv(ptr noundef nonnull align 4 dereferenceable(8) %maxExpansionsInitOnce23)
          to label %invoke.cont24 unwind label %lpad11

invoke.cont24:                                    ; preds = %invoke.cont15
  ret void

ehcleanup:                                        ; preds = %lpad11, %cleanup.done
  call void @_ZN6icu_756LocaleD1Ev(ptr noundef nonnull align 8 dereferenceable(217) %actualLocale) #5
  br label %ehcleanup25

ehcleanup25:                                      ; preds = %ehcleanup, %lpad2
  call void @_ZN6icu_7513UnicodeStringD1Ev(ptr noundef nonnull align 8 dereferenceable(64) %rules) #5
  br label %ehcleanup26

ehcleanup26:                                      ; preds = %ehcleanup25, %lpad
  call void @_ZN6icu_7512SharedObjectD2Ev(ptr noundef nonnull align 8 dereferenceable(24) %this1) #5
  br label %eh.resume

eh.resume:                                        ; preds = %ehcleanup26
  %exn = load ptr, ptr %exn.slot, align 8
  %sel = load i32, ptr %ehselector.slot, align 4
  %lpad.val = insertvalue { ptr, i32 } poison, ptr %exn, 0
  %lpad.val27 = insertvalue { ptr, i32 } %lpad.val, i32 %sel, 1
  resume { ptr, i32 } %lpad.val27
}