; Function Attrs: mustprogress uwtable
define void @_ZN6icu_7518CollationTailoringC2EPKNS_17CollationSettingsE(ptr noundef nonnull align 8 dereferenceable(400) %this, ptr noundef %baseSettings) unnamed_addr #0 align 2 personality ptr @__gxx_personality_v0 {
invoke.cont:
  %softRefCount.i = getelementptr inbounds i8, ptr %this, i64 8
  tail call void @llvm.memset.p0.i64(ptr noundef nonnull align 8 dereferenceable(16) %softRefCount.i, i8 0, i64 16, i1 false)
  store ptr getelementptr inbounds ({ [5 x ptr] }, ptr @_ZTVN6icu_7518CollationTailoringE, i64 0, i32 0, i64 2), ptr %this, align 8
  %data = getelementptr inbounds i8, ptr %this, i64 24
  store ptr null, ptr %data, align 8
  %settings = getelementptr inbounds i8, ptr %this, i64 32
  store ptr %baseSettings, ptr %settings, align 8
  %rules = getelementptr inbounds i8, ptr %this, i64 40
  store ptr getelementptr inbounds ({ [13 x ptr] }, ptr @_ZTVN6icu_7513UnicodeStringE, i64 0, i32 0, i64 2), ptr %rules, align 8
  %fUnion2.i = getelementptr inbounds i8, ptr %this, i64 48
  store i16 2, ptr %fUnion2.i, align 8
  %actualLocale = getelementptr inbounds i8, ptr %this, i64 104
  invoke void @_ZN6icu_756LocaleC1EPKcS2_S2_S2_(ptr noundef nonnull align 8 dereferenceable(217) %actualLocale, ptr noundef nonnull @.str, ptr noundef null, ptr noundef null, ptr noundef null)
          to label %invoke.cont3 unwind label %lpad2

invoke.cont3:                                     ; preds = %invoke.cont
  %ownedData = getelementptr inbounds i8, ptr %this, i64 336
  %cmp.not = icmp eq ptr %baseSettings, null
  tail call void @llvm.memset.p0.i64(ptr noundef nonnull align 8 dereferenceable(64) %ownedData, i8 0, i64 64, i1 false)
  br i1 %cmp.not, label %if.else, label %if.endthread-pre-split

lpad2:                                            ; preds = %invoke.cont
  %0 = landingpad { ptr, i32 }
          cleanup
  br label %ehcleanup25

if.else:                                          ; preds = %invoke.cont3
  %call = tail call noundef ptr @_ZN6icu_757UMemorynwEm(i64 noundef 856) #9
  %new.isnull = icmp eq ptr %call, null
  br i1 %new.isnull, label %new.cont, label %new.notnull

new.notnull:                                      ; preds = %if.else
  %softRefCount.i.i = getelementptr inbounds i8, ptr %call, i64 8
  tail call void @llvm.memset.p0.i64(ptr noundef nonnull align 8 dereferenceable(16) %softRefCount.i.i, i8 0, i64 16, i1 false)
  store ptr getelementptr inbounds ({ [5 x ptr] }, ptr @_ZTVN6icu_7517CollationSettingsE, i64 0, i32 0, i64 2), ptr %call, align 8
  %options.i = getelementptr inbounds i8, ptr %call, i64 24
  store i32 8208, ptr %options.i, align 8
  %variableTop.i = getelementptr inbounds i8, ptr %call, i64 28
  %reorderRanges.i = getelementptr inbounds i8, ptr %call, i64 48
  store ptr null, ptr %reorderRanges.i, align 8
  %reorderRangesLength.i = getelementptr inbounds i8, ptr %call, i64 56
  store i32 0, ptr %reorderRangesLength.i, align 8
  %reorderCodes.i = getelementptr inbounds i8, ptr %call, i64 64
  %fastLatinOptions.i = getelementptr inbounds i8, ptr %call, i64 80
  tail call void @llvm.memset.p0.i64(ptr noundef nonnull align 4 dereferenceable(16) %variableTop.i, i8 0, i64 16, i1 false)
  tail call void @llvm.memset.p0.i64(ptr noundef nonnull align 8 dereferenceable(16) %reorderCodes.i, i8 0, i64 16, i1 false)
  store i32 -1, ptr %fastLatinOptions.i, align 8
  br label %new.cont

new.cont:                                         ; preds = %new.notnull, %if.else
  store ptr %call, ptr %settings, align 8
  br label %if.end

if.endthread-pre-split:                           ; preds = %invoke.cont3
  %.pr = load ptr, ptr %settings, align 8
  br label %if.end

if.end:                                           ; preds = %if.endthread-pre-split, %new.cont
  %1 = phi ptr [ %.pr, %if.endthread-pre-split ], [ %call, %new.cont ]
  %cmp8.not = icmp eq ptr %1, null
  br i1 %cmp8.not, label %if.end13, label %if.then9

if.then9:                                         ; preds = %if.end
  invoke void @_ZNK6icu_7512SharedObject6addRefEv(ptr noundef nonnull align 8 dereferenceable(24) %1)
          to label %if.end13 unwind label %lpad11

lpad11:                                           ; preds = %if.end13, %if.then9
  %2 = landingpad { ptr, i32 }
          cleanup
  tail call void @_ZN6icu_756LocaleD1Ev(ptr noundef nonnull align 8 dereferenceable(217) %actualLocale) #9
  br label %ehcleanup25

if.end13:                                         ; preds = %if.then9, %if.end
  %call16 = invoke noundef ptr @_ZN6icu_7513UnicodeString19getTerminatedBufferEv(ptr noundef nonnull align 8 dereferenceable(64) %rules)
          to label %invoke.cont15 unwind label %lpad11

invoke.cont15:                                    ; preds = %if.end13
  %maxExpansionsInitOnce = getelementptr inbounds i8, ptr %this, i64 392
  %version = getelementptr inbounds i8, ptr %this, i64 328
  store i32 0, ptr %version, align 8
  store atomic i32 0, ptr %maxExpansionsInitOnce seq_cst, align 8
  ret void

ehcleanup25:                                      ; preds = %lpad11, %lpad2
  %.pn = phi { ptr, i32 } [ %2, %lpad11 ], [ %0, %lpad2 ]
  tail call void @_ZN6icu_7513UnicodeStringD1Ev(ptr noundef nonnull align 8 dereferenceable(64) %rules) #9
  tail call void @_ZN6icu_7512SharedObjectD2Ev(ptr noundef nonnull align 8 dereferenceable(24) %this) #9
  resume { ptr, i32 } %.pn
}